target datalayout = "e-m:e-p270:32:32-p271:32:32-p272:64:64-i64:64-i128:128-f80:128-n8:16:32:64-S128"
target triple = "x86_64-pc-linux-gnu"

; Function Attrs: mustprogress noinline uwtable
define hidden noundef ptr @_ZN8nanobind6detail12extract_nameEPKcS2_S2_(ptr noundef %0, ptr noundef %1, ptr noundef %2) #11 {
  %4 = alloca ptr, align 8
  %5 = alloca ptr, align 8
  %6 = alloca ptr, align 8
  %7 = alloca ptr, align 8
  %8 = alloca i64, align 8
  %9 = alloca ptr, align 8
  %10 = alloca ptr, align 8
  %11 = alloca i64, align 8
  %12 = alloca i8, align 1
  %13 = alloca i64, align 8
  %14 = alloca ptr, align 8
  store ptr %0, ptr %4, align 8
  store ptr %1, ptr %5, align 8
  store ptr %2, ptr %6, align 8
  call void @llvm.lifetime.start.p0(i64 8, ptr %7) #20
  %15 = load ptr, ptr %6, align 8
  %16 = call noundef ptr @strrchr(ptr noundef %15, i32 noundef 10) #23
  store ptr %16, ptr %7, align 8
  %17 = load ptr, ptr %7, align 8
  %18 = icmp ne ptr %17, null
  br i1 %18, label %19, label %22

19:                                               ; preds = %3
  %20 = load ptr, ptr %7, align 8
  %21 = getelementptr inbounds i8, ptr %20, i64 1
  br label %24

22:                                               ; preds = %3
  %23 = load ptr, ptr %6, align 8
  br label %24

24:                                               ; preds = %22, %19
  %25 = phi ptr [ %21, %19 ], [ %23, %22 ]
  store ptr %25, ptr %7, align 8
  call void @llvm.lifetime.start.p0(i64 8, ptr %8) #20
  %26 = load ptr, ptr %5, align 8
  %27 = call i64 @strlen(ptr noundef %26) #23
  store i64 %27, ptr %8, align 8
  %28 = load ptr, ptr %7, align 8
  %29 = load ptr, ptr %5, align 8
  %30 = load i64, ptr %8, align 8
  %31 = call i32 @strncmp(ptr noundef %28, ptr noundef %29, i64 noundef %30) #23
  %32 = icmp eq i32 %31, 0
  %33 = xor i1 %32, true
  %34 = zext i1 %33 to i64
  %35 = call i64 @llvm.expect.i64(i64 %34, i64 0)
  %36 = icmp ne i64 %35, 0
  br i1 %36, label %37, label %38

37:                                               ; preds = %24
  call void @_ZN8nanobind6detail16fail_unspecifiedEv() #22
  unreachable

38:                                               ; preds = %24
  %39 = load i64, ptr %8, align 8
  %40 = load ptr, ptr %7, align 8
  %41 = getelementptr inbounds nuw i8, ptr %40, i64 %39
  store ptr %41, ptr %7, align 8
  call void @llvm.lifetime.start.p0(i64 8, ptr %9) #20
  %42 = load ptr, ptr %7, align 8
  %43 = call noundef ptr @strchr(ptr noundef %42, i32 noundef 40) #23
  store ptr %43, ptr %9, align 8
  call void @llvm.lifetime.start.p0(i64 8, ptr %10) #20
  %44 = load ptr, ptr %7, align 8
  %45 = call noundef ptr @strchr(ptr noundef %44, i32 noundef 91) #23
  store ptr %45, ptr %10, align 8
  %46 = load ptr, ptr %9, align 8
  %47 = icmp eq ptr %46, null
  br i1 %47, label %48, label %50

48:                                               ; preds = %38
  %49 = load ptr, ptr %10, align 8
  store ptr %49, ptr %9, align 8
  br label %64

50:                                               ; preds = %38
  %51 = load ptr, ptr %10, align 8
  %52 = icmp ne ptr %51, null
  br i1 %52, label %53, label %63

53:                                               ; preds = %50
  %54 = load ptr, ptr %9, align 8
  %55 = load ptr, ptr %10, align 8
  %56 = icmp ult ptr %54, %55
  br i1 %56, label %57, label %59

57:                                               ; preds = %53
  %58 = load ptr, ptr %9, align 8
  br label %61

59:                                               ; preds = %53
  %60 = load ptr, ptr %10, align 8
  br label %61

61:                                               ; preds = %59, %57
  %62 = phi ptr [ %58, %57 ], [ %60, %59 ]
  store ptr %62, ptr %9, align 8
  br label %63

63:                                               ; preds = %61, %50
  br label %64

64:                                               ; preds = %63, %48
  %65 = load ptr, ptr %9, align 8
  %66 = icmp ne ptr %65, null
  %67 = xor i1 %66, true
  %68 = zext i1 %67 to i64
  %69 = call i64 @llvm.expect.i64(i64 %68, i64 0)
  %70 = icmp ne i64 %69, 0
  br i1 %70, label %71, label %72

71:                                               ; preds = %64
  call void @_ZN8nanobind6detail16fail_unspecifiedEv() #22
  unreachable

72:                                               ; preds = %64
  call void @llvm.lifetime.start.p0(i64 8, ptr %11) #20
  %73 = load ptr, ptr %7, align 8
  %74 = call i64 @strlen(ptr noundef %73) #23
  store i64 %74, ptr %11, align 8
  call void @llvm.lifetime.start.p0(i64 1, ptr %12) #20
  %75 = load ptr, ptr %7, align 8
  %76 = load i64, ptr %11, align 8
  %77 = icmp ne i64 %76, 0
  br i1 %77, label %78, label %81

78:                                               ; preds = %72
  %79 = load i64, ptr %11, align 8
  %80 = sub i64 %79, 1
  br label %82

81:                                               ; preds = %72
  br label %82

82:                                               ; preds = %81, %78
  %83 = phi i64 [ %80, %78 ], [ 0, %81 ]
  %84 = getelementptr inbounds nuw i8, ptr %75, i64 %83
  %85 = load i8, ptr %84, align 1
  store i8 %85, ptr %12, align 1
  %86 = load i8, ptr %12, align 1
  %87 = sext i8 %86 to i32
  %88 = icmp ne i32 %87, 58
  br i1 %88, label %89, label %93

89:                                               ; preds = %82
  %90 = load i8, ptr %12, align 1
  %91 = sext i8 %90 to i32
  %92 = icmp ne i32 %91, 32
  br label %93

93:                                               ; preds = %89, %82
  %94 = phi i1 [ false, %82 ], [ %92, %89 ]
  %95 = xor i1 %94, true
  %96 = zext i1 %95 to i64
  %97 = call i64 @llvm.expect.i64(i64 %96, i64 0)
  %98 = icmp ne i64 %97, 0
  br i1 %98, label %99, label %100

99:                                               ; preds = %93
  call void @_ZN8nanobind6detail16fail_unspecifiedEv() #22
  unreachable

100:                                              ; preds = %93
  %101 = load ptr, ptr %9, align 8
  %102 = load ptr, ptr %7, align 8
  %103 = icmp eq ptr %101, %102
  br i1 %103, label %118, label %104

104:                                              ; preds = %100
  %105 = load ptr, ptr %7, align 8
  %106 = getelementptr inbounds i8, ptr %105, i64 0
  %107 = load i8, ptr %106, align 1
  %108 = sext i8 %107 to i32
  %109 = icmp ne i32 %108, 32
  br i1 %109, label %110, label %116

110:                                              ; preds = %104
  %111 = load ptr, ptr %9, align 8
  %112 = getelementptr inbounds i8, ptr %111, i64 -1
  %113 = load i8, ptr %112, align 1
  %114 = sext i8 %113 to i32
  %115 = icmp ne i32 %114, 32
  br label %116

116:                                              ; preds = %110, %104
  %117 = phi i1 [ false, %104 ], [ %115, %110 ]
  br label %118

118:                                              ; preds = %116, %100
  %119 = phi i1 [ true, %100 ], [ %117, %116 ]
  %120 = xor i1 %119, true
  %121 = zext i1 %120 to i64
  %122 = call i64 @llvm.expect.i64(i64 %121, i64 0)
  %123 = icmp ne i64 %122, 0
  br i1 %123, label %124, label %125

124:                                              ; preds = %118
  call void @_ZN8nanobind6detail16fail_unspecifiedEv() #22
  unreachable

125:                                              ; preds = %118
  call void @llvm.lifetime.start.p0(i64 8, ptr %13) #20
  %126 = load ptr, ptr %9, align 8
  %127 = load ptr, ptr %7, align 8
  %128 = ptrtoint ptr %126 to i64
  %129 = ptrtoint ptr %127 to i64
  %130 = sub i64 %128, %129
  store i64 %130, ptr %13, align 8
  call void @llvm.lifetime.start.p0(i64 8, ptr %14) #20
  %131 = load i64, ptr %13, align 8
  %132 = add i64 %131, 1
  %133 = call noundef ptr @_ZN8nanobind6detail12malloc_checkEm(i64 noundef %132)
  store ptr %133, ptr %14, align 8
  %134 = load ptr, ptr %14, align 8
  %135 = load ptr, ptr %7, align 8
  %136 = load i64, ptr %13, align 8
  call void @llvm.memcpy.p0.p0.i64(ptr align 1 %134, ptr align 1 %135, i64 %136, i1 false)
  %137 = load ptr, ptr %14, align 8
  %138 = load i64, ptr %13, align 8
  %139 = getelementptr inbounds nuw i8, ptr %137, i64 %138
  store i8 0, ptr %139, align 1
  %140 = load ptr, ptr %14, align 8
  call void @llvm.lifetime.end.p0(i64 8, ptr %14) #20
  call void @llvm.lifetime.end.p0(i64 8, ptr %13) #20
  call void @llvm.lifetime.end.p0(i64 1, ptr %12) #20
  call void @llvm.lifetime.end.p0(i64 8, ptr %11) #20
  call void @llvm.lifetime.end.p0(i64 8, ptr %10) #20
  call void @llvm.lifetime.end.p0(i64 8, ptr %9) #20
  call void @llvm.lifetime.end.p0(i64 8, ptr %8) #20
  call void @llvm.lifetime.end.p0(i64 8, ptr %7) #20
  ret ptr %140
}