; Function Attrs: mustprogress noinline uwtable
define hidden noundef ptr @_ZN8nanobind6detail12extract_nameEPKcS2_S2_(ptr readnone captures(none) %0, ptr noundef readonly captures(none) %1, ptr noundef %2) local_unnamed_addr #9 {
  %4 = tail call noundef ptr @strrchr(ptr noundef nonnull dereferenceable(1) %2, i32 noundef 10) #31
  %.not = icmp eq ptr %4, null
  %5 = getelementptr inbounds nuw i8, ptr %4, i64 1
  %6 = select i1 %.not, ptr %2, ptr %5
  %7 = tail call i64 @strlen(ptr noundef nonnull dereferenceable(1) %1) #31
  %8 = tail call i32 @strncmp(ptr noundef nonnull %6, ptr noundef nonnull %1, i64 noundef %7) #31
  %.not41 = icmp eq i32 %8, 0
  br i1 %.not41, label %10, label %9, !prof !3

9:                                                ; preds = %3
  tail call void @_ZN8nanobind6detail16fail_unspecifiedEv() #30
  unreachable

10:                                               ; preds = %3
  %11 = getelementptr inbounds nuw i8, ptr %6, i64 %7
  %12 = tail call noundef ptr @strchr(ptr noundef nonnull dereferenceable(1) %11, i32 noundef 40) #31
  %13 = tail call noundef ptr @strchr(ptr noundef nonnull dereferenceable(1) %11, i32 noundef 91) #31
  %14 = icmp eq ptr %12, null
  %.not43 = icmp eq ptr %13, null
  br i1 %14, label %19, label %15

15:                                               ; preds = %10
  br i1 %.not43, label %.thread, label %16

16:                                               ; preds = %15
  %17 = icmp ult ptr %12, %13
  %18 = select i1 %17, ptr %12, ptr %13
  br label %.thread

19:                                               ; preds = %10
  br i1 %.not43, label %20, label %.thread, !prof !16

20:                                               ; preds = %19
  tail call void @_ZN8nanobind6detail16fail_unspecifiedEv() #30
  unreachable

.thread:                                          ; preds = %15, %16, %19
  %.053 = phi ptr [ %13, %19 ], [ %12, %15 ], [ %18, %16 ]
  %21 = tail call i64 @strlen(ptr noundef nonnull dereferenceable(1) %11) #31
  %22 = tail call i64 @llvm.usub.sat.i64(i64 %21, i64 1)
  %23 = getelementptr inbounds nuw i8, ptr %11, i64 %22
  %24 = load i8, ptr %23, align 1
  switch i8 %24, label %26 [
    i8 58, label %25
    i8 32, label %25
  ]

25:                                               ; preds = %.thread, %.thread
  tail call void @_ZN8nanobind6detail16fail_unspecifiedEv() #30
  unreachable

26:                                               ; preds = %.thread
  %27 = icmp eq ptr %.053, %11
  br i1 %27, label %.critedge, label %28

28:                                               ; preds = %26
  %29 = load i8, ptr %11, align 1
  %.not48 = icmp eq i8 %29, 32
  br i1 %.not48, label %.critedge50, label %30

30:                                               ; preds = %28
  %31 = getelementptr inbounds i8, ptr %.053, i64 -1
  %32 = load i8, ptr %31, align 1
  %33 = icmp eq i8 %32, 32
  br i1 %33, label %.critedge50, label %.critedge, !prof !4

.critedge50:                                      ; preds = %28, %30
  tail call void @_ZN8nanobind6detail16fail_unspecifiedEv() #30
  unreachable

.critedge:                                        ; preds = %26, %30
  %34 = ptrtoint ptr %.053 to i64
  %35 = ptrtoint ptr %11 to i64
  %36 = sub i64 %34, %35
  %37 = add i64 %36, 1
  %38 = tail call noundef ptr @_ZN8nanobind6detail12malloc_checkEm(i64 noundef %37)
  tail call void @llvm.memcpy.p0.p0.i64(ptr align 1 %38, ptr nonnull align 1 %11, i64 %36, i1 false)
  %39 = getelementptr inbounds nuw i8, ptr %38, i64 %36
  store i8 0, ptr %39, align 1
  ret ptr %38
}